target datalayout = "e-m:e-p270:32:32-p271:32:32-p272:64:64-i64:64-i128:128-f80:128-n8:16:32:64-S128"
target triple = "x86_64-pc-linux-gnu"

%struct.ClusterInfo = type { %struct.ControlData, ptr, %struct.DbInfoArr, ptr, ptr, ptr, ptr, ptr, i16, i32, [64 x i8], i32, ptr, i32 }
%struct.ControlData = type { i32, i32, [25 x i8], i32, i32, i32, i32, i32, i32, i32, i32, i32, i32, i32, i32, i32, i32, i32, i32, i8, i8, i32 }
%struct.DbInfoArr = type { ptr, i32 }
%struct.OSInfo = type { ptr, ptr, i8, ptr, i32, ptr, i32, ptr }
%struct.loadable_libraries_state = type { ptr, i32 }
%struct.DbInfo = type { i32, ptr, [1024 x i8], %struct.RelInfoArr, %struct.LogicalSlotInfoArr }
%struct.RelInfoArr = type { ptr, i32 }
%struct.LogicalSlotInfoArr = type { i32, ptr }
%struct.LibraryInfo = type { ptr, i32 }
%struct.LogicalSlotInfo = type { ptr, ptr, i8, i8, i8, i8 }

@old_cluster = external global %struct.ClusterInfo, align 8
@.str = private unnamed_addr constant [103 x i8] c"SELECT DISTINCT probin FROM pg_catalog.pg_proc WHERE prolang = %u AND probin IS NOT NULL AND oid >= %u\00", align 1
@os_info = external global %struct.OSInfo, align 8

; Function Attrs: nounwind uwtable
define dso_local void @get_loadable_libraries() #0 {
  %1 = alloca i32, align 4
  %2 = alloca i32, align 4
  %3 = alloca i32, align 4
  %4 = alloca ptr, align 8
  %5 = alloca %struct.loadable_libraries_state, align 8
  %6 = alloca ptr, align 8
  %7 = alloca ptr, align 8
  %8 = alloca i32, align 4
  %9 = alloca i32, align 4
  %10 = alloca ptr, align 8
  %11 = alloca ptr, align 8
  %12 = alloca i32, align 4
  call void @llvm.lifetime.start.p0(i64 4, ptr %1) #7
  call void @llvm.lifetime.start.p0(i64 4, ptr %2) #7
  call void @llvm.lifetime.start.p0(i64 4, ptr %3) #7
  call void @llvm.lifetime.start.p0(i64 8, ptr %4) #7
  %13 = call ptr @upgrade_task_create()
  store ptr %13, ptr %4, align 8
  call void @llvm.lifetime.start.p0(i64 16, ptr %5) #7
  call void @llvm.lifetime.start.p0(i64 8, ptr %6) #7
  %14 = load i32, ptr getelementptr inbounds nuw (%struct.DbInfoArr, ptr getelementptr inbounds nuw (%struct.ClusterInfo, ptr @old_cluster, i32 0, i32 2), i32 0, i32 1), align 8
  %15 = sext i32 %14 to i64
  %16 = mul i64 %15, 8
  %17 = call ptr @pg_malloc(i64 noundef %16)
  %18 = getelementptr inbounds nuw %struct.loadable_libraries_state, ptr %5, i32 0, i32 0
  store ptr %17, ptr %18, align 8
  %19 = getelementptr inbounds nuw %struct.loadable_libraries_state, ptr %5, i32 0, i32 1
  store i32 0, ptr %19, align 8
  %20 = call ptr (ptr, ...) @psprintf(ptr noundef @.str, i32 noundef 13, i32 noundef 16384)
  store ptr %20, ptr %6, align 8
  %21 = load ptr, ptr %4, align 8
  %22 = load ptr, ptr %6, align 8
  call void @upgrade_task_add_step(ptr noundef %21, ptr noundef %22, ptr noundef @process_loadable_libraries, i1 noundef zeroext false, ptr noundef %5)
  %23 = load ptr, ptr %4, align 8
  call void @upgrade_task_run(ptr noundef %23, ptr noundef @old_cluster)
  %24 = load ptr, ptr %4, align 8
  call void @upgrade_task_free(ptr noundef %24)
  %25 = getelementptr inbounds nuw %struct.loadable_libraries_state, ptr %5, i32 0, i32 1
  %26 = load i32, ptr %25, align 8
  %27 = call i32 @count_old_cluster_logical_slots()
  %28 = add i32 %26, %27
  store i32 %28, ptr %3, align 4
  %29 = load i32, ptr %3, align 4
  %30 = sext i32 %29 to i64
  %31 = mul i64 16, %30
  %32 = call ptr @pg_malloc(i64 noundef %31)
  store ptr %32, ptr getelementptr inbounds nuw (%struct.OSInfo, ptr @os_info, i32 0, i32 5), align 8
  store i32 0, ptr %1, align 4
  store i32 0, ptr %2, align 4
  br label %33

33:                                               ; preds = %124, %0
  %34 = load i32, ptr %2, align 4
  %35 = load i32, ptr getelementptr inbounds nuw (%struct.DbInfoArr, ptr getelementptr inbounds nuw (%struct.ClusterInfo, ptr @old_cluster, i32 0, i32 2), i32 0, i32 1), align 8
  %36 = icmp slt i32 %34, %35
  br i1 %36, label %37, label %127

37:                                               ; preds = %33
  call void @llvm.lifetime.start.p0(i64 8, ptr %7) #7
  %38 = getelementptr inbounds nuw %struct.loadable_libraries_state, ptr %5, i32 0, i32 0
  %39 = load ptr, ptr %38, align 8
  %40 = load i32, ptr %2, align 4
  %41 = sext i32 %40 to i64
  %42 = getelementptr inbounds ptr, ptr %39, i64 %41
  %43 = load ptr, ptr %42, align 8
  store ptr %43, ptr %7, align 8
  call void @llvm.lifetime.start.p0(i64 4, ptr %8) #7
  call void @llvm.lifetime.start.p0(i64 4, ptr %9) #7
  call void @llvm.lifetime.start.p0(i64 8, ptr %10) #7
  %44 = load ptr, ptr getelementptr inbounds nuw (%struct.ClusterInfo, ptr @old_cluster, i32 0, i32 2), align 8
  %45 = load i32, ptr %2, align 4
  %46 = sext i32 %45 to i64
  %47 = getelementptr inbounds %struct.DbInfo, ptr %44, i64 %46
  %48 = getelementptr inbounds nuw %struct.DbInfo, ptr %47, i32 0, i32 4
  store ptr %48, ptr %10, align 8
  %49 = load ptr, ptr %7, align 8
  %50 = call i32 @PQntuples(ptr noundef %49)
  store i32 %50, ptr %8, align 4
  store i32 0, ptr %9, align 4
  br label %51

51:                                               ; preds = %74, %37
  %52 = load i32, ptr %9, align 4
  %53 = load i32, ptr %8, align 4
  %54 = icmp slt i32 %52, %53
  br i1 %54, label %55, label %77

55:                                               ; preds = %51
  call void @llvm.lifetime.start.p0(i64 8, ptr %11) #7
  %56 = load ptr, ptr %7, align 8
  %57 = load i32, ptr %9, align 4
  %58 = call ptr @PQgetvalue(ptr noundef %56, i32 noundef %57, i32 noundef 0)
  store ptr %58, ptr %11, align 8
  %59 = load ptr, ptr %11, align 8
  %60 = call ptr @pg_strdup(ptr noundef %59)
  %61 = load ptr, ptr getelementptr inbounds nuw (%struct.OSInfo, ptr @os_info, i32 0, i32 5), align 8
  %62 = load i32, ptr %1, align 4
  %63 = sext i32 %62 to i64
  %64 = getelementptr inbounds %struct.LibraryInfo, ptr %61, i64 %63
  %65 = getelementptr inbounds nuw %struct.LibraryInfo, ptr %64, i32 0, i32 0
  store ptr %60, ptr %65, align 8
  %66 = load i32, ptr %2, align 4
  %67 = load ptr, ptr getelementptr inbounds nuw (%struct.OSInfo, ptr @os_info, i32 0, i32 5), align 8
  %68 = load i32, ptr %1, align 4
  %69 = sext i32 %68 to i64
  %70 = getelementptr inbounds %struct.LibraryInfo, ptr %67, i64 %69
  %71 = getelementptr inbounds nuw %struct.LibraryInfo, ptr %70, i32 0, i32 1
  store i32 %66, ptr %71, align 8
  %72 = load i32, ptr %1, align 4
  %73 = add i32 %72, 1
  store i32 %73, ptr %1, align 4
  call void @llvm.lifetime.end.p0(i64 8, ptr %11) #7
  br label %74

74:                                               ; preds = %55
  %75 = load i32, ptr %9, align 4
  %76 = add i32 %75, 1
  store i32 %76, ptr %9, align 4
  br label %51, !llvm.loop !4

77:                                               ; preds = %51
  %78 = load ptr, ptr %7, align 8
  call void @PQclear(ptr noundef %78)
  call void @llvm.lifetime.start.p0(i64 4, ptr %12) #7
  store i32 0, ptr %12, align 4
  br label %79

79:                                               ; preds = %120, %77
  %80 = load i32, ptr %12, align 4
  %81 = load ptr, ptr %10, align 8
  %82 = getelementptr inbounds nuw %struct.LogicalSlotInfoArr, ptr %81, i32 0, i32 0
  %83 = load i32, ptr %82, align 8
  %84 = icmp slt i32 %80, %83
  br i1 %84, label %86, label %85

85:                                               ; preds = %79
  call void @llvm.lifetime.end.p0(i64 4, ptr %12) #7
  br label %123

86:                                               ; preds = %79
  %87 = load ptr, ptr %10, align 8
  %88 = getelementptr inbounds nuw %struct.LogicalSlotInfoArr, ptr %87, i32 0, i32 1
  %89 = load ptr, ptr %88, align 8
  %90 = load i32, ptr %12, align 4
  %91 = sext i32 %90 to i64
  %92 = getelementptr inbounds %struct.LogicalSlotInfo, ptr %89, i64 %91
  %93 = getelementptr inbounds nuw %struct.LogicalSlotInfo, ptr %92, i32 0, i32 4
  %94 = load i8, ptr %93, align 2, !range !6, !noundef !7
  %95 = trunc i8 %94 to i1
  br i1 %95, label %96, label %97

96:                                               ; preds = %86
  br label %120

97:                                               ; preds = %86
  %98 = load ptr, ptr %10, align 8
  %99 = getelementptr inbounds nuw %struct.LogicalSlotInfoArr, ptr %98, i32 0, i32 1
  %100 = load ptr, ptr %99, align 8
  %101 = load i32, ptr %12, align 4
  %102 = sext i32 %101 to i64
  %103 = getelementptr inbounds %struct.LogicalSlotInfo, ptr %100, i64 %102
  %104 = getelementptr inbounds nuw %struct.LogicalSlotInfo, ptr %103, i32 0, i32 1
  %105 = load ptr, ptr %104, align 8
  %106 = call ptr @pg_strdup(ptr noundef %105)
  %107 = load ptr, ptr getelementptr inbounds nuw (%struct.OSInfo, ptr @os_info, i32 0, i32 5), align 8
  %108 = load i32, ptr %1, align 4
  %109 = sext i32 %108 to i64
  %110 = getelementptr inbounds %struct.LibraryInfo, ptr %107, i64 %109
  %111 = getelementptr inbounds nuw %struct.LibraryInfo, ptr %110, i32 0, i32 0
  store ptr %106, ptr %111, align 8
  %112 = load i32, ptr %2, align 4
  %113 = load ptr, ptr getelementptr inbounds nuw (%struct.OSInfo, ptr @os_info, i32 0, i32 5), align 8
  %114 = load i32, ptr %1, align 4
  %115 = sext i32 %114 to i64
  %116 = getelementptr inbounds %struct.LibraryInfo, ptr %113, i64 %115
  %117 = getelementptr inbounds nuw %struct.LibraryInfo, ptr %116, i32 0, i32 1
  store i32 %112, ptr %117, align 8
  %118 = load i32, ptr %1, align 4
  %119 = add i32 %118, 1
  store i32 %119, ptr %1, align 4
  br label %120

120:                                              ; preds = %97, %96
  %121 = load i32, ptr %12, align 4
  %122 = add i32 %121, 1
  store i32 %122, ptr %12, align 4
  br label %79, !llvm.loop !8

123:                                              ; preds = %85
  call void @llvm.lifetime.end.p0(i64 8, ptr %10) #7
  call void @llvm.lifetime.end.p0(i64 4, ptr %9) #7
  call void @llvm.lifetime.end.p0(i64 4, ptr %8) #7
  call void @llvm.lifetime.end.p0(i64 8, ptr %7) #7
  br label %124

124:                                              ; preds = %123
  %125 = load i32, ptr %2, align 4
  %126 = add i32 %125, 1
  store i32 %126, ptr %2, align 4
  br label %33, !llvm.loop !9

127:                                              ; preds = %33
  %128 = getelementptr inbounds nuw %struct.loadable_libraries_state, ptr %5, i32 0, i32 0
  %129 = load ptr, ptr %128, align 8
  call void @pg_free(ptr noundef %129)
  %130 = load ptr, ptr %6, align 8
  call void @pg_free(ptr noundef %130)
  %131 = load i32, ptr %1, align 4
  store i32 %131, ptr getelementptr inbounds nuw (%struct.OSInfo, ptr @os_info, i32 0, i32 6), align 8
  call void @llvm.lifetime.end.p0(i64 8, ptr %6) #7
  call void @llvm.lifetime.end.p0(i64 16, ptr %5) #7
  call void @llvm.lifetime.end.p0(i64 8, ptr %4) #7
  call void @llvm.lifetime.end.p0(i64 4, ptr %3) #7
  call void @llvm.lifetime.end.p0(i64 4, ptr %2) #7
  call void @llvm.lifetime.end.p0(i64 4, ptr %1) #7
  ret void
}