; Function Attrs: nounwind uwtable
define dso_local void @get_loadable_libraries() local_unnamed_addr #0 {
  %1 = alloca %struct.loadable_libraries_state, align 8
  %2 = tail call ptr @upgrade_task_create() #9
  call void @llvm.lifetime.start.p0(i64 16, ptr nonnull %1) #9
  %3 = load i32, ptr getelementptr inbounds nuw (i8, ptr @old_cluster, i64 128), align 8
  %4 = sext i32 %3 to i64
  %5 = shl nsw i64 %4, 3
  %6 = tail call ptr @pg_malloc(i64 noundef %5) #9
  store ptr %6, ptr %1, align 8
  %7 = getelementptr inbounds nuw i8, ptr %1, i64 8
  store i32 0, ptr %7, align 8
  %8 = tail call ptr (ptr, ...) @psprintf(ptr noundef nonnull @.str, i32 noundef 13, i32 noundef 16384) #9
  call void @upgrade_task_add_step(ptr noundef %2, ptr noundef %8, ptr noundef nonnull @process_loadable_libraries, i1 noundef zeroext false, ptr noundef nonnull %1) #9
  call void @upgrade_task_run(ptr noundef %2, ptr noundef nonnull @old_cluster) #9
  call void @upgrade_task_free(ptr noundef %2) #9
  %9 = load i32, ptr %7, align 8
  %10 = call i32 @count_old_cluster_logical_slots() #9
  %11 = add i32 %10, %9
  %12 = sext i32 %11 to i64
  %13 = shl nsw i64 %12, 4
  %14 = call ptr @pg_malloc(i64 noundef %13) #9
  store ptr %14, ptr getelementptr inbounds nuw (i8, ptr @os_info, i64 40), align 8
  %15 = load i32, ptr getelementptr inbounds nuw (i8, ptr @old_cluster, i64 128), align 8
  %16 = icmp sgt i32 %15, 0
  br i1 %16, label %.lr.ph47, label %._crit_edge48

.lr.ph47:                                         ; preds = %0, %._crit_edge42
  %indvars.iv51 = phi i64 [ %indvars.iv.next52, %._crit_edge42 ], [ 0, %0 ]
  %.03345 = phi i32 [ %.2.lcssa, %._crit_edge42 ], [ 0, %0 ]
  %17 = load ptr, ptr %1, align 8
  %18 = getelementptr inbounds nuw ptr, ptr %17, i64 %indvars.iv51
  %19 = load ptr, ptr %18, align 8
  %20 = load ptr, ptr getelementptr inbounds nuw (i8, ptr @old_cluster, i64 120), align 8
  %21 = getelementptr inbounds nuw %struct.DbInfo, ptr %20, i64 %indvars.iv51, i32 4
  %22 = call i32 @PQntuples(ptr noundef %19) #9
  %23 = icmp sgt i32 %22, 0
  br i1 %23, label %.lr.ph.preheader, label %._crit_edge

.lr.ph.preheader:                                 ; preds = %.lr.ph47
  %24 = trunc nuw nsw i64 %indvars.iv51 to i32
  br label %.lr.ph

.lr.ph:                                           ; preds = %.lr.ph.preheader, %.lr.ph
  %.137 = phi i32 [ %32, %.lr.ph ], [ %.03345, %.lr.ph.preheader ]
  %.03536 = phi i32 [ %33, %.lr.ph ], [ 0, %.lr.ph.preheader ]
  %25 = call ptr @PQgetvalue(ptr noundef %19, i32 noundef %.03536, i32 noundef 0) #9
  %26 = call ptr @pg_strdup(ptr noundef %25) #9
  %27 = load ptr, ptr getelementptr inbounds nuw (i8, ptr @os_info, i64 40), align 8
  %28 = sext i32 %.137 to i64
  %29 = getelementptr inbounds %struct.LibraryInfo, ptr %27, i64 %28
  store ptr %26, ptr %29, align 8
  %30 = load ptr, ptr getelementptr inbounds nuw (i8, ptr @os_info, i64 40), align 8
  %31 = getelementptr inbounds %struct.LibraryInfo, ptr %30, i64 %28, i32 1
  store i32 %24, ptr %31, align 8
  %32 = add i32 %.137, 1
  %33 = add nuw nsw i32 %.03536, 1
  %exitcond.not = icmp eq i32 %33, %22
  br i1 %exitcond.not, label %._crit_edge, label %.lr.ph, !llvm.loop !4

._crit_edge:                                      ; preds = %.lr.ph, %.lr.ph47
  %.1.lcssa = phi i32 [ %.03345, %.lr.ph47 ], [ %32, %.lr.ph ]
  call void @PQclear(ptr noundef %19) #9
  %34 = load i32, ptr %21, align 8
  %35 = icmp sgt i32 %34, 0
  br i1 %35, label %.lr.ph41, label %._crit_edge42

.lr.ph41:                                         ; preds = %._crit_edge
  %36 = getelementptr inbounds nuw i8, ptr %21, i64 8
  %37 = trunc nuw nsw i64 %indvars.iv51 to i32
  br label %41

._crit_edge42:                                    ; preds = %58, %._crit_edge
  %.2.lcssa = phi i32 [ %.1.lcssa, %._crit_edge ], [ %.3, %58 ]
  %indvars.iv.next52 = add nuw nsw i64 %indvars.iv51, 1
  %38 = load i32, ptr getelementptr inbounds nuw (i8, ptr @old_cluster, i64 128), align 8
  %39 = sext i32 %38 to i64
  %40 = icmp slt i64 %indvars.iv.next52, %39
  br i1 %40, label %.lr.ph47, label %._crit_edge48, !llvm.loop !6

41:                                               ; preds = %.lr.ph41, %58
  %42 = phi i32 [ %34, %.lr.ph41 ], [ %59, %58 ]
  %indvars.iv = phi i64 [ 0, %.lr.ph41 ], [ %indvars.iv.next, %58 ]
  %.238 = phi i32 [ %.1.lcssa, %.lr.ph41 ], [ %.3, %58 ]
  %43 = load ptr, ptr %36, align 8
  %44 = getelementptr inbounds nuw %struct.LogicalSlotInfo, ptr %43, i64 %indvars.iv
  %45 = getelementptr inbounds nuw i8, ptr %44, i64 18
  %46 = load i8, ptr %45, align 2, !range !7, !noundef !8
  %47 = trunc nuw i8 %46 to i1
  br i1 %47, label %58, label %48

48:                                               ; preds = %41
  %49 = getelementptr inbounds nuw i8, ptr %44, i64 8
  %50 = load ptr, ptr %49, align 8
  %51 = call ptr @pg_strdup(ptr noundef %50) #9
  %52 = load ptr, ptr getelementptr inbounds nuw (i8, ptr @os_info, i64 40), align 8
  %53 = sext i32 %.238 to i64
  %54 = getelementptr inbounds %struct.LibraryInfo, ptr %52, i64 %53
  store ptr %51, ptr %54, align 8
  %55 = load ptr, ptr getelementptr inbounds nuw (i8, ptr @os_info, i64 40), align 8
  %56 = getelementptr inbounds %struct.LibraryInfo, ptr %55, i64 %53, i32 1
  store i32 %37, ptr %56, align 8
  %57 = add i32 %.238, 1
  %.pre = load i32, ptr %21, align 8
  br label %58

58:                                               ; preds = %41, %48
  %59 = phi i32 [ %42, %41 ], [ %.pre, %48 ]
  %.3 = phi i32 [ %.238, %41 ], [ %57, %48 ]
  %indvars.iv.next = add nuw nsw i64 %indvars.iv, 1
  %60 = sext i32 %59 to i64
  %61 = icmp slt i64 %indvars.iv.next, %60
  br i1 %61, label %41, label %._crit_edge42, !llvm.loop !9

._crit_edge48:                                    ; preds = %._crit_edge42, %0
  %.033.lcssa = phi i32 [ 0, %0 ], [ %.2.lcssa, %._crit_edge42 ]
  %62 = load ptr, ptr %1, align 8
  call void @pg_free(ptr noundef %62) #9
  call void @pg_free(ptr noundef %8) #9
  store i32 %.033.lcssa, ptr getelementptr inbounds nuw (i8, ptr @os_info, i64 48), align 8
  call void @llvm.lifetime.end.p0(i64 16, ptr nonnull %1) #9
  ret void
}